Certificate:
    Data:
        Version: 1 (0x0)
        Serial Number: 2 (0x2)
        Signature Algorithm: sha256WithRSAEncryption
        Issuer: C=AU, ST=Some-State, O=Internet Widgits Pty Ltd, CN=CERT AUTH
        Validity
            Not Before: Apr 28 20:49:41 2020 GMT
            Not After : Apr 28 20:49:41 2021 GMT
        Subject: C=AU, ST=Some-State, O=Internet Widgits Pty Ltd, CN=CLI TEST
        Subject Public Key Info:
            Public Key Algorithm: rsaEncryption
                RSA Public-Key: (2048 bit)
                Modulus:
                    00:a5:99:9d:05:2a:1c:ed:2f:7e:f7:cc:36:73:94:
                    1c:88:31:70:a2:de:91:92:fa:3a:94:58:7d:83:09:
                    55:cd:f6:4c:98:8f:3b:6c:d1:ff:45:82:c6:63:e2:
                    35:ea:e6:3e:ef:6e:3e:b7:03:7d:2b:05:9d:aa:1f:
                    47:b7:41:71:ba:32:be:05:3b:51:b5:f1:69:19:93:
                    1f:4e:dd:a7:e9:36:bc:63:43:dd:a9:59:ea:bf:c4:
                    be:30:37:e1:20:56:d5:93:b8:cb:41:68:02:c7:a8:
                    c8:ca:b4:e0:53:77:1d:eb:57:d0:e4:71:d6:45:ce:
                    94:32:5e:28:f2:a4:fa:23:24:b8:31:cf:e0:38:22:
                    ec:68:82:27:81:69:d7:99:52:4a:3a:77:b7:12:a0:
                    69:16:8b:9e:1c:a6:a5:51:a7:e3:0f:f7:0a:09:1a:
                    81:2c:81:a1:fc:45:de:b4:03:28:6e:dd:ee:ee:77:
                    97:21:fd:51:46:14:c6:cc:fe:0e:85:e8:23:b0:bd:
                    44:4e:fe:cd:f7:85:45:50:5f:34:ad:3d:fc:89:d1:
                    37:65:f3:f7:c0:0a:4f:f9:b4:c0:70:42:9d:33:e7:
                    e8:d6:9e:fc:40:79:ae:95:07:c8:3e:4b:03:f0:63:
                    d6:3e:7e:21:80:ca:0d:ed:55:25:f8:90:bb:7c:4c:
                    63:73
                Exponent: 65537 (0x10001)
    Signature Algorithm: sha256WithRSAEncryption
         57:cb:7b:1c:01:8f:9a:7f:c5:0c:6e:56:e7:ee:48:3a:75:d8:
         bf:8e:fe:97:f0:fa:5a:07:54:d0:ff:91:3e:f1:cf:29:ec:46:
         8a:62:6e:c1:1a:31:9c:f3:7c:1c:12:ae:8d:69:f6:05:1f:d1:
         67:e4:3f:50:48:fe:32:26:06:3a:68:43:f3:4a:97:59:a1:ed:
         4c:c0:6e:c1:b1:0b:b8:63:74:d4:11:8c:3b:f5:9b:a7:9d:74:
         7d:4d:1d:f5:6b:68:39:e3:a7:33:f2:e0:cf:7b:46:2b:4c:8f:
         39:e3:e1:a7:be:9f:f8:e6:3e:0f:eb:97:f8:5e:14:ae:02:f6:
         61:f1:5d:4b:5c:28:ea:2d:7a:48:6a:f7:24:dc:e9:17:74:87:
         b3:bf:f3:d8:33:06:05:50:86:78:41:e9:20:5c:9b:48:f5:90:
         0f:78:a3:a8:3d:cd:4d:f9:35:ac:8e:46:61:85:48:8c:46:14:
         5c:5b:0d:a2:ea:04:c5:da:98:e7:35:14:ad:20:c3:9f:18:df:
         2d:bf:c2:c5:29:f5:00:76:ea:9e:73:7c:49:cd:b2:bb:ec:4e:
         6a:d9:49:f2:0c:38:f6:eb:0c:74:44:11:99:9b:3c:f7:32:5a:
         71:ed:40:b1:8a:fb:0f:04:0a:ee:94:3b:45:81:ec:90:73:ab:
         d9:9b:81:a5
-----BEGIN CERTIFICATE-----
MIIDJTCCAg0CAQIwDQYJKoZIhvcNAQELBQAwWTELMAkGA1UEBhMCQVUxEzARBgNV
BAgMClNvbWUtU3RhdGUxITAfBgNVBAoMGEludGVybmV0IFdpZGdpdHMgUHR5IEx0
ZDESMBAGA1UEAwwJQ0VSVCBBVVRIMB4XDTIwMDQyODIwNDk0MVoXDTIxMDQyODIw
NDk0MVowWDELMAkGA1UEBhMCQVUxEzARBgNVBAgMClNvbWUtU3RhdGUxITAfBgNV
BAoMGEludGVybmV0IFdpZGdpdHMgUHR5IEx0ZDERMA8GA1UEAwwIQ0xJIFRFU1Qw
ggEiMA0GCSqGSIb3DQEBAQUAA4IBDwAwggEKAoIBAQClmZ0FKhztL373zDZzlByI
MXCi3pGS+jqUWH2DCVXN9kyYjzts0f9FgsZj4jXq5j7vbj63A30rBZ2qH0e3QXG6
Mr4FO1G18WkZkx9O3afpNrxjQ92pWeq/xL4wN+EgVtWTuMtBaALHqMjKtOBTdx3r
V9DkcdZFzpQyXijypPojJLgxz+A4IuxogieBadeZUko6d7cSoGkWi54cpqVRp+MP
9woJGoEsgaH8Rd60Ayhu3e7ud5ch/VFGFMbM/g6F6COwvURO/s33hUVQXzStPfyJ
0Tdl8/fACk/5tMBwQp0z5+jWnvxAea6VB8g+SwPwY9Y+fiGAyg3tVSX4kLt8TGNz
AgMBAAEwDQYJKoZIhvcNAQELBQADggEBAFfLexwBj5p/xQxuVufuSDp12L+O/pfw
+loHVND/kT7xzynsRopibsEaMZzzfBwSro1p9gUf0WfkP1BI/jImBjpoQ/NKl1mh
7UzAbsGxC7hjdNQRjDv1m6eddH1NHfVraDnjpzPy4M97RitMjznj4ae+n/jmPg/r
l/heFK4C9mHxXUtcKOotekhq9yTc6Rd0h7O/89gzBgVQhnhB6SBcm0j1kA94o6g9
zU35NayORmGFSIxGFFxbDaLqBMXamOc1FK0gw58Y3y2/wsUp9QB26p5zfEnNsrvs
TmrZSfIMOPbrDHREEZmbPPcyWnHtQLGK+w8ECu6UO0WB7JBzq9mbgaU=
-----END CERTIFICATE-----
