Certificate:
    Data:
        Version: 1 (0x0)
        Serial Number: 1 (0x1)
        Signature Algorithm: sha256WithRSAEncryption
        Issuer: C=AU, ST=Some-State, O=Internet Widgits Pty Ltd, CN=CERT AUTH
        Validity
            Not Before: Apr 28 20:49:24 2020 GMT
            Not After : Apr 28 20:49:24 2021 GMT
        Subject: C=AU, ST=Some-State, O=Internet Widgits Pty Ltd, CN=SERV TEST
        Subject Public Key Info:
            Public Key Algorithm: rsaEncryption
                RSA Public-Key: (2048 bit)
                Modulus:
                    00:a0:a0:e2:45:67:98:00:f6:d4:61:60:c1:e1:6a:
                    a5:d7:fc:5b:6e:ae:7c:d9:41:5a:1e:bd:f9:fc:95:
                    a5:fb:a9:ca:35:ef:0d:6e:fa:b7:73:2e:8d:37:5f:
                    5a:8e:79:6c:06:62:15:d9:8f:04:d4:7d:6f:38:11:
                    33:79:e6:20:a4:b8:be:40:43:80:35:71:73:99:9e:
                    04:3d:18:e2:e0:c9:0d:77:bf:31:2a:47:3c:81:9c:
                    e5:d2:6a:a5:9f:e3:44:d1:80:62:34:ba:00:40:ac:
                    0b:89:c3:ac:93:e8:6f:8c:d0:fd:86:6c:86:08:0d:
                    49:fc:0c:fb:ca:18:7c:9e:cd:6d:dc:b0:cc:c7:4d:
                    e8:f1:89:f7:f5:55:35:4a:16:87:b8:2c:9e:40:f5:
                    c9:87:8c:21:fb:b6:f3:f0:33:d0:ee:df:84:1d:9e:
                    cf:d1:89:5d:4f:98:2d:d7:24:6d:7e:0d:d8:6c:67:
                    d6:12:4f:40:54:cc:f6:67:e4:c5:98:06:cd:8a:2b:
                    dd:53:13:7a:69:59:0f:c9:4c:f8:6f:ef:94:2f:d3:
                    94:cd:d6:6b:a2:e5:c6:4f:30:ad:d4:16:f6:ff:63:
                    27:b8:a7:bc:82:6d:9a:54:10:fa:5a:eb:b2:fa:b8:
                    39:01:40:92:f7:fc:97:49:45:63:06:bd:f5:de:ad:
                    bf:21
                Exponent: 65537 (0x10001)
    Signature Algorithm: sha256WithRSAEncryption
         89:42:66:e3:3a:fc:9a:8e:93:5f:67:b8:db:4a:ab:8b:31:fd:
         fb:09:11:9f:60:86:40:45:f1:67:95:4d:ee:ff:39:48:ae:97:
         8f:52:10:1f:27:c5:c8:4a:a2:ec:95:61:64:9b:c6:e6:d1:13:
         73:85:f7:99:43:91:54:a7:4d:eb:99:50:96:08:b8:12:47:1b:
         d2:27:01:59:5f:36:bb:23:c4:f3:9d:14:82:e4:36:09:ca:4d:
         32:86:50:14:ec:ab:1a:41:3b:16:b3:7b:32:48:67:71:6a:ec:
         d6:7e:40:59:e3:0f:81:3d:d6:7b:e1:64:57:b6:d8:2c:3a:f3:
         40:ec:76:48:00:64:f1:03:1b:d0:60:71:df:a3:ef:35:41:e8:
         c1:03:ae:a3:4f:76:b7:6b:3d:16:60:ad:92:e1:3f:5f:b3:4d:
         f1:0d:e7:4e:83:d6:f0:1d:59:95:c7:ad:ed:b4:10:5a:f5:b5:
         cf:f3:a8:ef:55:e3:af:eb:79:34:e2:33:22:14:79:4f:a5:b1:
         72:c9:41:5a:9c:bb:e8:60:a0:0c:25:34:cd:6d:24:ef:b6:cb:
         9a:a7:d0:63:52:e5:62:17:03:9a:87:b8:11:ee:c7:bb:c2:de:
         b4:82:17:dc:1e:4c:c4:fa:90:6a:2f:48:1b:93:8e:f6:b4:80:
         ef:8c:bd:94
-----BEGIN CERTIFICATE-----
MIIDJjCCAg4CAQEwDQYJKoZIhvcNAQELBQAwWTELMAkGA1UEBhMCQVUxEzARBgNV
BAgMClNvbWUtU3RhdGUxITAfBgNVBAoMGEludGVybmV0IFdpZGdpdHMgUHR5IEx0
ZDESMBAGA1UEAwwJQ0VSVCBBVVRIMB4XDTIwMDQyODIwNDkyNFoXDTIxMDQyODIw
NDkyNFowWTELMAkGA1UEBhMCQVUxEzARBgNVBAgMClNvbWUtU3RhdGUxITAfBgNV
BAoMGEludGVybmV0IFdpZGdpdHMgUHR5IEx0ZDESMBAGA1UEAwwJU0VSViBURVNU
MIIBIjANBgkqhkiG9w0BAQEFAAOCAQ8AMIIBCgKCAQEAoKDiRWeYAPbUYWDB4Wql
1/xbbq582UFaHr35/JWl+6nKNe8Nbvq3cy6NN19ajnlsBmIV2Y8E1H1vOBEzeeYg
pLi+QEOANXFzmZ4EPRji4MkNd78xKkc8gZzl0mqln+NE0YBiNLoAQKwLicOsk+hv
jND9hmyGCA1J/Az7yhh8ns1t3LDMx03o8Yn39VU1ShaHuCyeQPXJh4wh+7bz8DPQ
7t+EHZ7P0YldT5gt1yRtfg3YbGfWEk9AVMz2Z+TFmAbNiivdUxN6aVkPyUz4b++U
L9OUzdZrouXGTzCt1Bb2/2MnuKe8gm2aVBD6Wuuy+rg5AUCS9/yXSUVjBr313q2/
IQIDAQABMA0GCSqGSIb3DQEBCwUAA4IBAQCJQmbjOvyajpNfZ7jbSquLMf37CRGf
YIZARfFnlU3u/zlIrpePUhAfJ8XISqLslWFkm8bm0RNzhfeZQ5FUp03rmVCWCLgS
RxvSJwFZXza7I8TznRSC5DYJyk0yhlAU7KsaQTsWs3sySGdxauzWfkBZ4w+BPdZ7
4WRXttgsOvNA7HZIAGTxAxvQYHHfo+81QejBA66jT3a3az0WYK2S4T9fs03xDedO
g9bwHVmVx63ttBBa9bXP86jvVeOv63k04jMiFHlPpbFyyUFanLvoYKAMJTTNbSTv
tsuap9BjUuViFwOah7gR7se7wt60ghfcHkzE+pBqL0gbk472tIDvjL2U
-----END CERTIFICATE-----
