Certificate:
    Data:
        Version: 1 (0x0)
        Serial Number: 2 (0x2)
        Signature Algorithm: sha256WithRSAEncryption
        Issuer: C=AU, ST=Some-State, O=Internet Widgits Pty Ltd, CN=CA PRIV KEY DUBIOUS
        Validity
            Not Before: Aug 15 19:21:40 2020 GMT
            Not After : Aug 15 19:21:40 2021 GMT
        Subject: C=AU, ST=Some-State, O=Internet Widgits Pty Ltd, CN=CLI PRIV KEY DUBIOUS
        Subject Public Key Info:
            Public Key Algorithm: rsaEncryption
                RSA Public-Key: (2048 bit)
                Modulus:
                    00:a0:b8:95:6a:24:ee:e2:be:79:0f:d1:92:c1:d7:
                    53:40:6f:59:c2:ad:a7:fd:2b:17:43:f1:e7:e5:46:
                    88:39:ff:07:91:d9:2b:b3:8e:c2:e6:9f:eb:3d:e8:
                    2f:7d:16:8c:4e:e4:91:89:c8:2d:43:9c:48:9c:d2:
                    ee:0f:41:81:b6:31:6d:1e:c3:d3:1a:2c:82:c4:59:
                    fc:4f:ba:76:5f:6f:e1:82:e9:d6:8f:89:27:46:df:
                    96:55:77:e1:62:42:f5:62:92:19:ad:60:3f:ae:a8:
                    d5:7d:8d:e2:68:61:75:6d:70:5c:d0:1d:a3:59:9c:
                    ac:dc:3c:51:b1:c4:c9:9a:66:44:bc:ca:bf:2a:fc:
                    d5:14:5b:8b:ea:e6:fe:e5:87:ce:00:4f:ac:af:2a:
                    c8:68:9b:d3:d7:ae:72:42:32:ab:b1:d0:27:5f:75:
                    0d:73:3a:89:1d:e7:56:6e:44:bb:fe:4e:ed:9c:63:
                    db:e6:a7:d6:50:5a:08:da:7b:58:40:8b:27:a1:47:
                    40:b3:70:25:92:50:1d:20:31:b4:99:96:87:58:53:
                    2c:39:43:bf:fc:0f:1d:6c:30:6c:27:3b:08:08:a9:
                    77:3d:18:61:cc:34:09:73:55:49:aa:0f:18:b3:b3:
                    60:41:b0:cd:22:1a:09:a8:09:36:0c:de:05:4e:2e:
                    c1:e1
                Exponent: 65537 (0x10001)
    Signature Algorithm: sha256WithRSAEncryption
         99:26:ff:fe:01:d2:2a:a0:7d:62:dd:09:02:52:85:16:89:cc:
         79:8a:fe:48:d9:f8:a7:ff:96:28:22:38:3a:59:48:7e:c5:07:
         8b:8f:5d:ab:bd:bd:54:75:2f:b0:3a:d0:6d:8d:b6:69:f1:1e:
         07:2b:ef:8f:0f:7c:50:3d:36:77:2e:27:7c:c6:53:e6:45:00:
         c5:2e:db:69:88:4b:a9:07:9d:df:37:74:a6:62:73:2f:a6:ce:
         f5:02:3a:c0:6e:21:4d:a2:a7:ff:e3:fa:94:4e:94:ad:c6:c4:
         ba:22:6f:81:d0:d2:87:25:32:c0:04:3e:3a:75:c6:04:eb:81:
         e5:79:7e:97:12:30:e1:e8:e7:61:2c:11:e1:8e:58:02:fb:75:
         bc:71:70:5f:da:e6:4f:1d:06:4a:6b:fd:93:e6:4f:29:31:00:
         02:48:77:28:f9:c3:f2:6e:88:fd:e3:f2:4a:1c:ce:24:eb:1b:
         96:04:8f:eb:61:5c:30:56:21:61:ae:11:2c:7d:40:a9:cb:ab:
         49:02:b0:d2:ac:52:3f:3d:52:16:c6:c9:96:c0:bf:1d:ec:86:
         cc:a1:f9:26:c7:e4:ab:d8:a9:4f:be:63:78:ae:e3:d6:3c:b4:
         1f:9b:bc:e1:fb:72:42:14:54:23:f0:df:40:81:9f:c2:7c:fa:
         ec:34:83:7a
-----BEGIN CERTIFICATE-----
MIIDOzCCAiMCAQIwDQYJKoZIhvcNAQELBQAwYzELMAkGA1UEBhMCQVUxEzARBgNV
BAgMClNvbWUtU3RhdGUxITAfBgNVBAoMGEludGVybmV0IFdpZGdpdHMgUHR5IEx0
ZDEcMBoGA1UEAwwTQ0EgUFJJViBLRVkgRFVCSU9VUzAeFw0yMDA4MTUxOTIxNDBa
Fw0yMTA4MTUxOTIxNDBaMGQxCzAJBgNVBAYTAkFVMRMwEQYDVQQIDApTb21lLVN0
YXRlMSEwHwYDVQQKDBhJbnRlcm5ldCBXaWRnaXRzIFB0eSBMdGQxHTAbBgNVBAMM
FENMSSBQUklWIEtFWSBEVUJJT1VTMIIBIjANBgkqhkiG9w0BAQEFAAOCAQ8AMIIB
CgKCAQEAoLiVaiTu4r55D9GSwddTQG9Zwq2n/SsXQ/Hn5UaIOf8Hkdkrs47C5p/r
PegvfRaMTuSRicgtQ5xInNLuD0GBtjFtHsPTGiyCxFn8T7p2X2/hgunWj4knRt+W
VXfhYkL1YpIZrWA/rqjVfY3iaGF1bXBc0B2jWZys3DxRscTJmmZEvMq/KvzVFFuL
6ub+5YfOAE+sryrIaJvT165yQjKrsdAnX3UNczqJHedWbkS7/k7tnGPb5qfWUFoI
2ntYQIsnoUdAs3AlklAdIDG0mZaHWFMsOUO//A8dbDBsJzsICKl3PRhhzDQJc1VJ
qg8Ys7NgQbDNIhoJqAk2DN4FTi7B4QIDAQABMA0GCSqGSIb3DQEBCwUAA4IBAQCZ
Jv/+AdIqoH1i3QkCUoUWicx5iv5I2fin/5YoIjg6WUh+xQeLj12rvb1UdS+wOtBt
jbZp8R4HK++PD3xQPTZ3Lid8xlPmRQDFLttpiEupB53fN3SmYnMvps71AjrAbiFN
oqf/4/qUTpStxsS6Im+B0NKHJTLABD46dcYE64HleX6XEjDh6OdhLBHhjlgC+3W8
cXBf2uZPHQZKa/2T5k8pMQACSHco+cPyboj94/JKHM4k6xuWBI/rYVwwViFhrhEs
fUCpy6tJArDSrFI/PVIWxsmWwL8d7IbMofkmx+Sr2KlPvmN4ruPWPLQfm7zh+3JC
FFQj8N9AgZ/CfPrsNIN6
-----END CERTIFICATE-----
