Certificate:
    Data:
        Version: 1 (0x0)
        Serial Number: 1 (0x1)
        Signature Algorithm: sha256WithRSAEncryption
        Issuer: C=AU, ST=Some-State, O=Internet Widgits Pty Ltd, CN=CA PRIV KEY DUBIOUS
        Validity
            Not Before: Aug 15 19:21:21 2020 GMT
            Not After : Aug 15 19:21:21 2021 GMT
        Subject: C=AU, ST=Some-State, O=Internet Widgits Pty Ltd, CN=SERV PRIV KEY DUBIOUS
        Subject Public Key Info:
            Public Key Algorithm: rsaEncryption
                RSA Public-Key: (2048 bit)
                Modulus:
                    00:e4:13:af:28:07:33:7a:cf:a6:20:54:c1:31:de:
                    a5:e2:45:c7:2a:40:bd:29:cb:f8:34:6a:a5:96:b3:
                    87:bc:92:97:1d:10:ae:76:f4:2b:e7:54:8e:38:48:
                    b3:0a:b3:0f:51:d7:c4:b1:8b:e8:f2:75:8d:eb:d5:
                    ca:4f:5c:2b:fa:4f:d3:a4:21:35:5d:81:5f:f7:59:
                    86:fa:0b:0f:c6:eb:a2:06:a5:b6:8d:34:82:75:ba:
                    c5:9a:e2:67:6a:fe:80:8c:e9:25:e1:ef:61:a6:18:
                    bf:32:1d:2b:98:eb:fd:32:48:24:7b:c5:82:f6:38:
                    dc:e8:17:d9:cb:9c:ea:d6:10:3d:ca:49:35:c9:d6:
                    f8:09:ef:f1:e9:63:b8:61:ce:5e:25:ad:3a:3c:41:
                    41:43:25:e4:21:e3:c4:43:a1:f0:98:31:86:d7:0f:
                    92:18:cf:2e:8d:a4:b2:ee:e4:a8:2c:63:ed:17:a7:
                    b2:f0:b1:b1:a5:79:da:06:ac:d4:11:bd:92:c0:c8:
                    bb:b2:70:53:77:77:9b:20:c2:cd:1e:08:36:23:b9:
                    92:0f:0c:33:84:0e:5c:c4:45:85:45:55:c1:2a:11:
                    53:cf:cf:4c:fe:cf:92:b8:57:ac:e1:66:e8:38:13:
                    f4:d6:d3:b1:59:38:9e:4a:52:8b:6a:24:b9:f6:df:
                    a7:9b
                Exponent: 65537 (0x10001)
    Signature Algorithm: sha256WithRSAEncryption
         1c:96:f1:79:98:9e:c9:0f:88:a6:a2:ec:91:58:93:e8:ab:2f:
         97:44:cd:a0:62:30:bb:66:f3:75:73:bb:78:a5:44:af:51:96:
         76:da:62:62:5d:de:5b:10:4e:cf:11:29:ee:44:ac:15:ac:5d:
         83:a4:79:c4:63:7f:13:0d:22:0e:ca:07:fc:3d:db:ff:31:3c:
         fa:21:5e:e9:4b:e2:ce:9f:78:0e:14:e4:f3:6f:98:4e:de:46:
         1f:2b:29:a1:a5:43:bc:8e:48:90:92:2e:6d:24:32:14:a5:68:
         54:c2:d1:f6:31:ee:ac:11:d5:76:4a:28:6b:36:93:e3:3d:78:
         c4:f1:c9:19:df:e8:2b:1a:4e:db:9d:80:58:32:b6:a2:45:82:
         a8:3d:6e:eb:ea:60:63:4a:cf:02:05:ae:71:0f:54:77:e7:4e:
         ef:bc:69:df:a0:e0:02:b1:8f:2c:02:94:9d:3e:9e:24:8f:82:
         63:d5:12:80:03:77:c5:65:25:2a:b3:7b:7c:21:ab:c6:cd:02:
         22:c7:34:39:bc:69:53:5f:c7:26:e4:70:c3:8f:15:82:57:b4:
         ce:42:5c:ca:cc:d6:2b:4b:de:c8:eb:2b:52:b6:e2:37:a8:a3:
         19:4a:bf:10:0f:39:3e:31:b9:9c:90:b9:cd:16:6c:13:2e:9c:
         3f:2b:13:e6
-----BEGIN CERTIFICATE-----
MIIDPDCCAiQCAQEwDQYJKoZIhvcNAQELBQAwYzELMAkGA1UEBhMCQVUxEzARBgNV
BAgMClNvbWUtU3RhdGUxITAfBgNVBAoMGEludGVybmV0IFdpZGdpdHMgUHR5IEx0
ZDEcMBoGA1UEAwwTQ0EgUFJJViBLRVkgRFVCSU9VUzAeFw0yMDA4MTUxOTIxMjFa
Fw0yMTA4MTUxOTIxMjFaMGUxCzAJBgNVBAYTAkFVMRMwEQYDVQQIDApTb21lLVN0
YXRlMSEwHwYDVQQKDBhJbnRlcm5ldCBXaWRnaXRzIFB0eSBMdGQxHjAcBgNVBAMM
FVNFUlYgUFJJViBLRVkgRFVCSU9VUzCCASIwDQYJKoZIhvcNAQEBBQADggEPADCC
AQoCggEBAOQTrygHM3rPpiBUwTHepeJFxypAvSnL+DRqpZazh7ySlx0Qrnb0K+dU
jjhIswqzD1HXxLGL6PJ1jevVyk9cK/pP06QhNV2BX/dZhvoLD8brogalto00gnW6
xZriZ2r+gIzpJeHvYaYYvzIdK5jr/TJIJHvFgvY43OgX2cuc6tYQPcpJNcnW+Anv
8eljuGHOXiWtOjxBQUMl5CHjxEOh8JgxhtcPkhjPLo2ksu7kqCxj7RensvCxsaV5
2gas1BG9ksDIu7JwU3d3myDCzR4INiO5kg8MM4QOXMRFhUVVwSoRU8/PTP7PkrhX
rOFm6DgT9NbTsVk4nkpSi2okufbfp5sCAwEAATANBgkqhkiG9w0BAQsFAAOCAQEA
HJbxeZieyQ+IpqLskViT6Ksvl0TNoGIwu2bzdXO7eKVEr1GWdtpiYl3eWxBOzxEp
7kSsFaxdg6R5xGN/Ew0iDsoH/D3b/zE8+iFe6Uvizp94DhTk82+YTt5GHyspoaVD
vI5IkJIubSQyFKVoVMLR9jHurBHVdkooazaT4z14xPHJGd/oKxpO252AWDK2okWC
qD1u6+pgY0rPAgWucQ9Ud+dO77xp36DgArGPLAKUnT6eJI+CY9USgAN3xWUlKrN7
fCGrxs0CIsc0ObxpU1/HJuRww48Vgle0zkJcyszWK0veyOsrUrbiN6ijGUq/EA85
PjG5nJC5zRZsEy6cPysT5g==
-----END CERTIFICATE-----
