Certificate:
    Data:
        Version: 1 (0x0)
        Serial Number: 2 (0x2)
        Signature Algorithm: sha256WithRSAEncryption
        Issuer: C=AU, ST=Some-State, O=Internet Widgits Pty Ltd, CN=CA PRIV KEY LEGIT
        Validity
            Not Before: Aug 15 19:20:55 2020 GMT
            Not After : Aug 15 19:20:55 2021 GMT
        Subject: C=AU, ST=Some-State, O=Internet Widgits Pty Ltd, CN=CLI PRIV KEY LEGIT
        Subject Public Key Info:
            Public Key Algorithm: rsaEncryption
                RSA Public-Key: (2048 bit)
                Modulus:
                    00:9d:3a:ca:da:8c:74:74:51:f8:bb:b3:2d:a3:7d:
                    1d:2d:db:66:9d:73:3b:cb:42:25:9d:ed:d8:b0:83:
                    82:bf:d8:cd:60:1b:1b:18:8b:01:9b:bc:3c:23:1a:
                    e2:cd:ff:7c:28:9e:3b:37:a5:07:67:d7:7a:d6:24:
                    e5:69:a2:fd:dc:f2:6a:dc:65:78:77:d2:52:ba:12:
                    21:7d:17:27:5d:c8:de:5f:08:90:17:d3:17:44:5b:
                    b2:41:a9:34:ca:d4:3b:2c:15:fb:1b:8c:a6:8b:6d:
                    ae:f7:85:ec:4a:b8:b6:34:91:c2:e2:3b:54:d8:21:
                    16:dd:7d:8e:83:21:fa:80:c7:47:a6:4d:32:fe:1f:
                    71:7c:5e:cd:f1:d2:5b:ea:05:e7:c5:d7:60:40:4d:
                    e1:7d:55:9c:26:66:f0:f7:b1:b9:3a:3a:83:e1:9d:
                    a8:4b:19:a8:cf:02:46:d4:04:1d:45:6b:61:47:b6:
                    99:4e:ff:cf:49:8f:74:31:fc:cf:65:76:37:20:ee:
                    df:ab:d0:61:e4:be:1c:28:27:34:67:87:ad:4c:da:
                    dc:10:f2:8c:a5:a2:5d:45:4a:58:1d:02:de:a7:ac:
                    11:fc:cc:cb:54:21:b8:7c:e8:2c:95:33:e7:0a:7e:
                    00:c5:e8:1d:87:ca:ac:78:96:44:02:08:6e:08:1a:
                    8b:77
                Exponent: 65537 (0x10001)
    Signature Algorithm: sha256WithRSAEncryption
         01:89:0a:64:fb:a4:29:6b:18:9a:92:8c:93:1c:90:af:9d:76:
         a4:e7:b2:5c:14:d1:1a:bf:52:10:11:d9:da:b0:f4:3e:e6:32:
         0e:a4:80:15:60:44:68:29:fe:17:93:7a:4c:ba:e5:36:07:3d:
         6d:42:94:0d:a0:55:6a:ad:33:fa:df:0f:1f:60:31:c9:b5:fa:
         81:9b:df:b6:23:3d:8a:5c:ea:22:f8:19:3a:d1:e4:8e:90:17:
         1b:0c:06:07:88:e6:5d:3e:f9:90:04:a8:ad:58:7e:c8:a4:4b:
         a8:41:90:5d:77:a5:e6:46:62:fc:88:05:09:46:ba:89:e0:01:
         5c:52:d7:5d:ad:d2:b0:80:d8:74:01:e1:9c:a4:df:62:22:6e:
         5e:73:15:29:cf:56:f8:ec:3f:2c:b6:1a:23:0b:be:02:ee:42:
         81:f9:c4:65:21:df:95:d0:8b:7e:56:0b:a2:d7:19:fc:cc:80:
         e2:69:c9:c5:b3:ff:42:86:92:5b:ce:2d:c8:a8:df:c3:8f:7a:
         19:40:d8:4f:39:83:62:d4:15:d4:a8:d6:1f:c7:a1:b5:c7:49:
         87:9c:24:15:0a:54:1b:e6:ba:82:15:d1:da:db:b6:dc:fb:b1:
         73:88:ca:2a:de:30:ec:81:8d:33:5d:d6:bf:66:03:1f:07:b3:
         f5:ea:74:67
-----BEGIN CERTIFICATE-----
MIIDNzCCAh8CAQIwDQYJKoZIhvcNAQELBQAwYTELMAkGA1UEBhMCQVUxEzARBgNV
BAgMClNvbWUtU3RhdGUxITAfBgNVBAoMGEludGVybmV0IFdpZGdpdHMgUHR5IEx0
ZDEaMBgGA1UEAwwRQ0EgUFJJViBLRVkgTEVHSVQwHhcNMjAwODE1MTkyMDU1WhcN
MjEwODE1MTkyMDU1WjBiMQswCQYDVQQGEwJBVTETMBEGA1UECAwKU29tZS1TdGF0
ZTEhMB8GA1UECgwYSW50ZXJuZXQgV2lkZ2l0cyBQdHkgTHRkMRswGQYDVQQDDBJD
TEkgUFJJViBLRVkgTEVHSVQwggEiMA0GCSqGSIb3DQEBAQUAA4IBDwAwggEKAoIB
AQCdOsrajHR0Ufi7sy2jfR0t22adczvLQiWd7diwg4K/2M1gGxsYiwGbvDwjGuLN
/3wonjs3pQdn13rWJOVpov3c8mrcZXh30lK6EiF9FyddyN5fCJAX0xdEW7JBqTTK
1DssFfsbjKaLba73hexKuLY0kcLiO1TYIRbdfY6DIfqAx0emTTL+H3F8Xs3x0lvq
BefF12BATeF9VZwmZvD3sbk6OoPhnahLGajPAkbUBB1Fa2FHtplO/89Jj3Qx/M9l
djcg7t+r0GHkvhwoJzRnh61M2twQ8oylol1FSlgdAt6nrBH8zMtUIbh86CyVM+cK
fgDF6B2Hyqx4lkQCCG4IGot3AgMBAAEwDQYJKoZIhvcNAQELBQADggEBAAGJCmT7
pClrGJqSjJMckK+ddqTnslwU0Rq/UhAR2dqw9D7mMg6kgBVgRGgp/heTeky65TYH
PW1ClA2gVWqtM/rfDx9gMcm1+oGb37YjPYpc6iL4GTrR5I6QFxsMBgeI5l0++ZAE
qK1YfsikS6hBkF13peZGYvyIBQlGuongAVxS112t0rCA2HQB4Zyk32Iibl5zFSnP
VvjsPyy2GiMLvgLuQoH5xGUh35XQi35WC6LXGfzMgOJpycWz/0KGklvOLcio38OP
ehlA2E85g2LUFdSo1h/HobXHSYecJBUKVBvmuoIV0drbttz7sXOIyireMOyBjTNd
1r9mAx8Hs/XqdGc=
-----END CERTIFICATE-----
