Certificate:
    Data:
        Version: 1 (0x0)
        Serial Number: 1 (0x1)
        Signature Algorithm: sha256WithRSAEncryption
        Issuer: C=AU, ST=Some-State, O=Internet Widgits Pty Ltd, CN=CA PRIV KEY LEGIT
        Validity
            Not Before: Aug 15 19:20:30 2020 GMT
            Not After : Aug 15 19:20:30 2021 GMT
        Subject: C=AU, ST=Some-State, O=Internet Widgits Pty Ltd, CN=SERVER PRIV KEY LEGIT
        Subject Public Key Info:
            Public Key Algorithm: rsaEncryption
                RSA Public-Key: (2048 bit)
                Modulus:
                    00:bf:aa:88:17:7d:3d:a8:68:34:42:bb:44:d8:60:
                    a1:cd:c5:be:71:4d:b8:89:84:b3:ef:ab:8e:83:6e:
                    84:e5:3e:5e:90:1b:ad:6c:ee:9a:aa:70:f0:39:4b:
                    c7:48:4b:b9:01:c2:3a:02:7d:65:fd:f5:66:51:a0:
                    49:9b:44:82:31:cd:d6:8b:eb:ba:b8:e8:da:fe:da:
                    51:03:cd:ba:45:20:db:99:67:ac:83:66:6d:07:68:
                    5b:b4:08:78:f4:1f:05:62:94:15:ca:fb:b4:14:e6:
                    fb:22:f6:59:bf:26:48:b2:73:85:ca:fc:83:7e:55:
                    4a:46:e3:d5:8e:97:46:b1:11:72:cb:78:72:a4:c1:
                    1d:29:26:e6:bb:c5:6b:48:59:a2:a4:21:43:10:89:
                    f0:de:cf:a2:ef:c5:e3:7d:c3:b4:c6:40:36:74:b4:
                    29:17:ed:91:ce:a8:74:82:57:2b:7c:c9:a0:22:be:
                    30:03:d7:8d:af:dd:d2:a7:95:82:85:9b:82:a5:37:
                    d5:2a:b7:60:9e:8b:27:31:00:27:82:19:0f:c3:02:
                    2d:14:3a:76:5d:2a:b9:03:41:81:28:85:00:ab:17:
                    ac:8c:12:be:ee:11:44:89:60:6c:b7:18:9e:dd:45:
                    bd:d7:3b:d2:be:69:06:f1:13:84:05:12:f0:b2:ac:
                    72:e3
                Exponent: 65537 (0x10001)
    Signature Algorithm: sha256WithRSAEncryption
         55:57:70:03:72:de:86:bd:49:8b:60:a3:ca:ef:1a:d5:d4:03:
         0c:42:a8:1c:6d:fd:64:53:17:d1:ec:b5:6a:0a:6a:ba:f3:f7:
         34:4a:be:0b:2b:ef:84:c9:70:ef:cb:7f:00:ad:69:fc:56:2d:
         86:92:cc:a8:42:8c:b1:b0:f9:be:3f:96:45:d4:cd:db:2f:19:
         5b:1d:76:9f:bc:bf:65:f1:bb:ee:da:b3:af:95:98:d3:b2:9a:
         f0:cd:af:1b:c5:4d:14:0a:ec:81:78:3f:a6:8e:fe:a0:aa:80:
         61:50:bc:96:ea:2c:32:f4:ed:29:b1:18:ab:ee:3c:2d:4e:32:
         2c:e9:55:df:3c:07:3e:58:8d:28:f7:e6:04:05:4b:47:2b:e6:
         05:19:5d:33:b5:0e:41:d8:5d:75:9e:24:23:30:d9:14:b3:52:
         74:d6:ed:d8:d0:51:3d:d2:d6:ac:b2:c0:f1:3d:d1:38:b2:4e:
         cf:83:6b:c5:ab:31:9a:cd:46:ca:5e:e6:f4:65:1c:77:bf:ab:
         bb:85:7b:0f:2d:43:35:b6:3c:2a:01:2b:c1:22:2d:ed:3f:32:
         67:9e:a6:d7:c1:48:64:d9:6e:1d:d8:b6:40:4d:e9:ea:1b:15:
         55:39:a7:04:f7:e3:99:25:5c:5d:3f:1f:c1:d0:3d:c3:fa:d0:
         3f:3f:69:a8
-----BEGIN CERTIFICATE-----
MIIDOjCCAiICAQEwDQYJKoZIhvcNAQELBQAwYTELMAkGA1UEBhMCQVUxEzARBgNV
BAgMClNvbWUtU3RhdGUxITAfBgNVBAoMGEludGVybmV0IFdpZGdpdHMgUHR5IEx0
ZDEaMBgGA1UEAwwRQ0EgUFJJViBLRVkgTEVHSVQwHhcNMjAwODE1MTkyMDMwWhcN
MjEwODE1MTkyMDMwWjBlMQswCQYDVQQGEwJBVTETMBEGA1UECAwKU29tZS1TdGF0
ZTEhMB8GA1UECgwYSW50ZXJuZXQgV2lkZ2l0cyBQdHkgTHRkMR4wHAYDVQQDDBVT
RVJWRVIgUFJJViBLRVkgTEVHSVQwggEiMA0GCSqGSIb3DQEBAQUAA4IBDwAwggEK
AoIBAQC/qogXfT2oaDRCu0TYYKHNxb5xTbiJhLPvq46DboTlPl6QG61s7pqqcPA5
S8dIS7kBwjoCfWX99WZRoEmbRIIxzdaL67q46Nr+2lEDzbpFINuZZ6yDZm0HaFu0
CHj0HwVilBXK+7QU5vsi9lm/Jkiyc4XK/IN+VUpG49WOl0axEXLLeHKkwR0pJua7
xWtIWaKkIUMQifDez6LvxeN9w7TGQDZ0tCkX7ZHOqHSCVyt8yaAivjAD142v3dKn
lYKFm4KlN9Uqt2CeiycxACeCGQ/DAi0UOnZdKrkDQYEohQCrF6yMEr7uEUSJYGy3
GJ7dRb3XO9K+aQbxE4QFEvCyrHLjAgMBAAEwDQYJKoZIhvcNAQELBQADggEBAFVX
cANy3oa9SYtgo8rvGtXUAwxCqBxt/WRTF9HstWoKarrz9zRKvgsr74TJcO/LfwCt
afxWLYaSzKhCjLGw+b4/lkXUzdsvGVsddp+8v2Xxu+7as6+VmNOymvDNrxvFTRQK
7IF4P6aO/qCqgGFQvJbqLDL07SmxGKvuPC1OMizpVd88Bz5YjSj35gQFS0cr5gUZ
XTO1DkHYXXWeJCMw2RSzUnTW7djQUT3S1qyywPE90TiyTs+Da8WrMZrNRspe5vRl
HHe/q7uFew8tQzW2PCoBK8EiLe0/MmeeptfBSGTZbh3YtkBN6eobFVU5pwT345kl
XF0/H8HQPcP60D8/aag=
-----END CERTIFICATE-----
